; Function Attrs: mustprogress uwtable
define void @_ZNK2cv7MatExpr3mulERKNS_3MatEd(ptr dead_on_unwind noalias writable sret(%"class.cv::MatExpr") align 8 %0, ptr noundef nonnull align 8 dereferenceable(352) %1, ptr noundef nonnull align 8 dereferenceable(96) %2, double noundef %3) local_unnamed_addr #8 align 2 personality ptr @__gxx_personality_v0 {
  %5 = alloca %"class.cv::MatExpr", align 8
  store ptr null, ptr %0, align 8
  %6 = getelementptr inbounds i8, ptr %0, i64 8
  store i32 0, ptr %6, align 8
  %7 = getelementptr inbounds i8, ptr %0, i64 16
  tail call void @_ZN2cv3MatC1Ev(ptr noundef nonnull align 8 dereferenceable(96) %7) #21
  %8 = getelementptr inbounds i8, ptr %0, i64 112
  tail call void @_ZN2cv3MatC1Ev(ptr noundef nonnull align 8 dereferenceable(96) %8) #21
  %9 = getelementptr inbounds i8, ptr %0, i64 208
  tail call void @_ZN2cv3MatC1Ev(ptr noundef nonnull align 8 dereferenceable(96) %9) #21
  %10 = getelementptr inbounds i8, ptr %0, i64 304
  tail call void @llvm.memset.p0.i64(ptr noundef nonnull align 8 dereferenceable(48) %10, i8 0, i64 48, i1 false)
  %11 = load ptr, ptr %1, align 8
  invoke void @_ZN2cv7MatExprC1ERKNS_3MatE(ptr noundef nonnull align 8 dereferenceable(352) %5, ptr noundef nonnull align 8 dereferenceable(96) %2)
          to label %12 unwind label %20

12:                                               ; preds = %4
  %13 = load ptr, ptr %11, align 8
  %14 = getelementptr inbounds i8, ptr %13, i64 136
  %15 = load ptr, ptr %14, align 8
  invoke void %15(ptr noundef nonnull align 8 dereferenceable(8) %11, ptr noundef nonnull align 8 dereferenceable(352) %1, ptr noundef nonnull align 8 dereferenceable(352) %5, ptr noundef nonnull align 8 dereferenceable(352) %0, double noundef %3)
          to label %16 unwind label %22

16:                                               ; preds = %12
  %17 = getelementptr inbounds i8, ptr %5, i64 208
  call void @_ZN2cv3MatD1Ev(ptr noundef nonnull align 8 dereferenceable(96) %17) #21
  %18 = getelementptr inbounds i8, ptr %5, i64 112
  call void @_ZN2cv3MatD1Ev(ptr noundef nonnull align 8 dereferenceable(96) %18) #21
  %19 = getelementptr inbounds i8, ptr %5, i64 16
  call void @_ZN2cv3MatD1Ev(ptr noundef nonnull align 8 dereferenceable(96) %19) #21
  ret void

20:                                               ; preds = %4
  %21 = landingpad { ptr, i32 }
          cleanup
  br label %24

22:                                               ; preds = %12
  %23 = landingpad { ptr, i32 }
          cleanup
  call void @_ZN2cv7MatExprD2Ev(ptr noundef nonnull align 8 dereferenceable(352) %5) #21
  br label %24

24:                                               ; preds = %22, %20
  %.pn = phi { ptr, i32 } [ %23, %22 ], [ %21, %20 ]
  call void @_ZN2cv7MatExprD2Ev(ptr noundef nonnull align 8 dereferenceable(352) %0) #21
  resume { ptr, i32 } %.pn
}